target datalayout = "e-m:e-p270:32:32-p271:32:32-p272:64:64-i64:64-i128:128-f80:128-n8:16:32:64-S128"
target triple = "x86_64-pc-linux-gnu"

%struct.Glucose_Pars_ = type { i32, i32, i32, i32 }
%struct.Abc_Frame_t_ = type { ptr, ptr, ptr, ptr, ptr, ptr, ptr, ptr, ptr, ptr, i32, i32, i32, i32, i32, ptr, float, float, i32, i32, ptr, ptr, ptr, double, double, ptr, ptr, ptr, ptr, ptr, ptr, ptr, ptr, ptr, ptr, ptr, ptr, float, ptr, i32, ptr, ptr, ptr, ptr, ptr, i32, i32, i32, i32, i32, i32, ptr, ptr, ptr, ptr, ptr, ptr, i32, i32, ptr, ptr, ptr, ptr, ptr, ptr, ptr, ptr, ptr, ptr, ptr, ptr, ptr, ptr, ptr, ptr, ptr, ptr, ptr, ptr, ptr, ptr, ptr, ptr, ptr, ptr, ptr, ptr, ptr, ptr }
%struct.Gia_Man_t_ = type { ptr, ptr, i32, i32, i32, i32, ptr, ptr, i32, i32, i32, ptr, ptr, %struct.Vec_Int_t_, %struct.Vec_Int_t_, i32, i32, i32, %struct.Vec_Int_t_, ptr, ptr, ptr, i32, i32, i32, i32, ptr, ptr, ptr, ptr, ptr, i32, i32, ptr, i32, ptr, ptr, ptr, ptr, ptr, ptr, ptr, ptr, ptr, ptr, ptr, ptr, ptr, ptr, ptr, ptr, ptr, ptr, %struct.Vec_Int_t_, %struct.Vec_Int_t_, ptr, ptr, ptr, ptr, ptr, ptr, ptr, ptr, ptr, ptr, ptr, ptr, ptr, ptr, ptr, ptr, ptr, ptr, ptr, ptr, ptr, i32, float, float, ptr, ptr, i32, ptr, ptr, ptr, ptr, ptr, ptr, ptr, ptr, ptr, ptr, ptr, ptr, ptr, ptr, ptr, i64, i64, ptr, ptr, i32, i32, i32, i32, i32, i32, i32, i32, i32, i32, i32, i32, ptr, ptr, ptr, ptr, ptr, ptr, ptr, ptr, i32, i32, i32, ptr, i32, i32, ptr, ptr, ptr, ptr, ptr, ptr, i32, i32, ptr, %struct.Vec_Int_t_, %struct.Vec_Int_t_, %struct.Vec_Int_t_, ptr, ptr, ptr, i32, i32, i32, i32, ptr, ptr, ptr, ptr, ptr }
%struct.Vec_Int_t_ = type { i32, i32, ptr }

@.str.2 = private unnamed_addr constant [6 x i8] c"Cpdvh\00", align 1
@globalUtilOptind = external global i32, align 4
@.str.3 = private unnamed_addr constant [60 x i8] c"Command line switch \22-C\22 should be followed by an integer.\0A\00", align 1
@.str.4 = private unnamed_addr constant [40 x i8] c"Abc_CommandGlucose(): There is no AIG.\0A\00", align 1
@.str.5 = private unnamed_addr constant [45 x i8] c"usage: &glucose [-C num] [-pdvh] <file.cnf>\0A\00", align 1
@.str.6 = private unnamed_addr constant [68 x i8] c"\09             run Glucose 3.0 by Gilles Audemard and Laurent Simon\0A\00", align 1
@.str.7 = private unnamed_addr constant [45 x i8] c"\09-C num     : conflict limit [default = %d]\0A\00", align 1
@.str.8 = private unnamed_addr constant [51 x i8] c"\09-p         : enable preprocessing [default = %d]\0A\00", align 1
@.str.9 = private unnamed_addr constant [69 x i8] c"\09-d         : enable dumping CNF after proprocessing [default = %d]\0A\00", align 1
@.str.10 = private unnamed_addr constant [40 x i8] c"\09-v         : verbosity [default = %d]\0A\00", align 1
@.str.11 = private unnamed_addr constant [39 x i8] c"\09-h         : print the command usage\0A\00", align 1
@.str.12 = private unnamed_addr constant [44 x i8] c"\09<file.cnf> : (optional) CNF file to solve\0A\00", align 1

; Function Attrs: inlinehint mustprogress nounwind uwtable
define internal { i64, i64 } @_ZL18Glucose_CreateParsiiii(i32 noundef %0, i32 noundef %1, i32 noundef %2, i32 noundef %3) #3 {
  %5 = alloca %struct.Glucose_Pars_, align 4
  %6 = alloca i32, align 4
  %7 = alloca i32, align 4
  %8 = alloca i32, align 4
  %9 = alloca i32, align 4
  store i32 %0, ptr %6, align 4, !tbaa !8
  store i32 %1, ptr %7, align 4, !tbaa !8
  store i32 %2, ptr %8, align 4, !tbaa !8
  store i32 %3, ptr %9, align 4, !tbaa !8
  %10 = load i32, ptr %6, align 4, !tbaa !8
  %11 = getelementptr inbounds nuw %struct.Glucose_Pars_, ptr %5, i32 0, i32 0
  store i32 %10, ptr %11, align 4, !tbaa !33
  %12 = load i32, ptr %7, align 4, !tbaa !8
  %13 = getelementptr inbounds nuw %struct.Glucose_Pars_, ptr %5, i32 0, i32 1
  store i32 %12, ptr %13, align 4, !tbaa !35
  %14 = load i32, ptr %8, align 4, !tbaa !8
  %15 = getelementptr inbounds nuw %struct.Glucose_Pars_, ptr %5, i32 0, i32 2
  store i32 %14, ptr %15, align 4, !tbaa !36
  %16 = load i32, ptr %9, align 4, !tbaa !8
  %17 = getelementptr inbounds nuw %struct.Glucose_Pars_, ptr %5, i32 0, i32 3
  store i32 %16, ptr %17, align 4, !tbaa !37
  %18 = load { i64, i64 }, ptr %5, align 4
  ret { i64, i64 } %18
}

; Function Attrs: inlinehint mustprogress nounwind willreturn memory(read) uwtable
define available_externally i32 @atoi(ptr noundef nonnull %0) #4 {
  %2 = alloca ptr, align 8
  store ptr %0, ptr %2, align 8, !tbaa !12
  %3 = load ptr, ptr %2, align 8, !tbaa !12
  %4 = call i64 @strtol(ptr noundef %3, ptr noundef null, i32 noundef 10) #9
  %5 = trunc i64 %4 to i32
  ret i32 %5
}

; Function Attrs: mustprogress nounwind uwtable
define internal noundef i32 @_ZL18Abc_CommandGlucoseP12Abc_Frame_t_iPPc(ptr noundef %0, i32 noundef %1, ptr noundef %2) #0 {
  %4 = alloca i32, align 4
  %5 = alloca ptr, align 8
  %6 = alloca i32, align 4
  %7 = alloca ptr, align 8
  %8 = alloca i32, align 4
  %9 = alloca i32, align 4
  %10 = alloca i32, align 4
  %11 = alloca i32, align 4
  %12 = alloca i32, align 4
  %13 = alloca %struct.Glucose_Pars_, align 4
  %14 = alloca %struct.Glucose_Pars_, align 4
  %15 = alloca i32, align 4
  store ptr %0, ptr %5, align 8, !tbaa !3
  store i32 %1, ptr %6, align 4, !tbaa !8
  store ptr %2, ptr %7, align 8, !tbaa !10
  call void @llvm.lifetime.start.p0(i64 4, ptr %8) #9
  store i32 0, ptr %8, align 4, !tbaa !8
  call void @llvm.lifetime.start.p0(i64 4, ptr %9) #9
  store i32 1, ptr %9, align 4, !tbaa !8
  call void @llvm.lifetime.start.p0(i64 4, ptr %10) #9
  store i32 0, ptr %10, align 4, !tbaa !8
  call void @llvm.lifetime.start.p0(i64 4, ptr %11) #9
  store i32 0, ptr %11, align 4, !tbaa !8
  call void @llvm.lifetime.start.p0(i64 4, ptr %12) #9
  store i32 0, ptr %12, align 4, !tbaa !8
  call void @llvm.lifetime.start.p0(i64 16, ptr %13) #9
  call void @Extra_UtilGetoptReset()
  br label %16

16:                                               ; preds = %52, %3
  %17 = load i32, ptr %6, align 4, !tbaa !8
  %18 = load ptr, ptr %7, align 8, !tbaa !10
  %19 = call i32 @Extra_UtilGetopt(i32 noundef %17, ptr noundef %18, ptr noundef @.str.2)
  store i32 %19, ptr %8, align 4, !tbaa !8
  %20 = icmp ne i32 %19, -1
  br i1 %20, label %21, label %53

21:                                               ; preds = %16
  %22 = load i32, ptr %8, align 4, !tbaa !8
  switch i32 %22, label %51 [
    i32 67, label %23
    i32 112, label %41
    i32 100, label %44
    i32 118, label %47
    i32 104, label %50
  ]

23:                                               ; preds = %21
  %24 = load i32, ptr @globalUtilOptind, align 4, !tbaa !8
  %25 = load i32, ptr %6, align 4, !tbaa !8
  %26 = icmp sge i32 %24, %25
  br i1 %26, label %27, label %28

27:                                               ; preds = %23
  call void (i32, ptr, ...) @_ZL9Abc_PrintiPKcz(i32 noundef -1, ptr noundef @.str.3)
  br label %92

28:                                               ; preds = %23
  %29 = load ptr, ptr %7, align 8, !tbaa !10
  %30 = load i32, ptr @globalUtilOptind, align 4, !tbaa !8
  %31 = sext i32 %30 to i64
  %32 = getelementptr inbounds ptr, ptr %29, i64 %31
  %33 = load ptr, ptr %32, align 8, !tbaa !12
  %34 = call i32 @atoi(ptr noundef %33) #10
  store i32 %34, ptr %11, align 4, !tbaa !8
  %35 = load i32, ptr @globalUtilOptind, align 4, !tbaa !8
  %36 = add nsw i32 %35, 1
  store i32 %36, ptr @globalUtilOptind, align 4, !tbaa !8
  %37 = load i32, ptr %11, align 4, !tbaa !8
  %38 = icmp slt i32 %37, 0
  br i1 %38, label %39, label %40

39:                                               ; preds = %28
  br label %92

40:                                               ; preds = %28
  br label %52

41:                                               ; preds = %21
  %42 = load i32, ptr %9, align 4, !tbaa !8
  %43 = xor i32 %42, 1
  store i32 %43, ptr %9, align 4, !tbaa !8
  br label %52

44:                                               ; preds = %21
  %45 = load i32, ptr %12, align 4, !tbaa !8
  %46 = xor i32 %45, 1
  store i32 %46, ptr %12, align 4, !tbaa !8
  br label %52

47:                                               ; preds = %21
  %48 = load i32, ptr %10, align 4, !tbaa !8
  %49 = xor i32 %48, 1
  store i32 %49, ptr %10, align 4, !tbaa !8
  br label %52

50:                                               ; preds = %21
  br label %92

51:                                               ; preds = %21
  br label %92

52:                                               ; preds = %47, %44, %41, %40
  br label %16, !llvm.loop !14

53:                                               ; preds = %16
  call void @llvm.lifetime.start.p0(i64 16, ptr %14) #9
  %54 = load i32, ptr %9, align 4, !tbaa !8
  %55 = load i32, ptr %10, align 4, !tbaa !8
  %56 = load i32, ptr %11, align 4, !tbaa !8
  %57 = call { i64, i64 } @_ZL18Glucose_CreateParsiiii(i32 noundef %54, i32 noundef %55, i32 noundef 0, i32 noundef %56)
  %58 = getelementptr inbounds nuw { i64, i64 }, ptr %14, i32 0, i32 0
  %59 = extractvalue { i64, i64 } %57, 0
  store i64 %59, ptr %58, align 4
  %60 = getelementptr inbounds nuw { i64, i64 }, ptr %14, i32 0, i32 1
  %61 = extractvalue { i64, i64 } %57, 1
  store i64 %61, ptr %60, align 4
  call void @llvm.memcpy.p0.p0.i64(ptr align 4 %13, ptr align 4 %14, i64 16, i1 false), !tbaa.struct !16
  call void @llvm.lifetime.end.p0(i64 16, ptr %14) #9
  %62 = load i32, ptr %6, align 4, !tbaa !8
  %63 = load i32, ptr @globalUtilOptind, align 4, !tbaa !8
  %64 = add nsw i32 %63, 1
  %65 = icmp eq i32 %62, %64
  br i1 %65, label %66, label %73

66:                                               ; preds = %53
  %67 = load ptr, ptr %7, align 8, !tbaa !10
  %68 = load i32, ptr @globalUtilOptind, align 4, !tbaa !8
  %69 = sext i32 %68 to i64
  %70 = getelementptr inbounds ptr, ptr %67, i64 %69
  %71 = load ptr, ptr %70, align 8, !tbaa !12
  %72 = load i32, ptr %12, align 4, !tbaa !8
  call void @Glucose_SolveCnf(ptr noundef %71, ptr noundef %13, i32 noundef %72)
  store i32 0, ptr %4, align 4
  store i32 1, ptr %15, align 4
  br label %97

73:                                               ; preds = %53
  %74 = load ptr, ptr %5, align 8, !tbaa !3
  %75 = getelementptr inbounds nuw %struct.Abc_Frame_t_, ptr %74, i32 0, i32 40
  %76 = load ptr, ptr %75, align 8, !tbaa !17
  %77 = icmp eq ptr %76, null
  br i1 %77, label %78, label %79

78:                                               ; preds = %73
  call void (i32, ptr, ...) @_ZL9Abc_PrintiPKcz(i32 noundef -1, ptr noundef @.str.4)
  store i32 1, ptr %4, align 4
  store i32 1, ptr %15, align 4
  br label %97

79:                                               ; preds = %73
  %80 = load ptr, ptr %5, align 8, !tbaa !3
  %81 = getelementptr inbounds nuw %struct.Abc_Frame_t_, ptr %80, i32 0, i32 40
  %82 = load ptr, ptr %81, align 8, !tbaa !17
  %83 = call i32 @Glucose_SolveAig(ptr noundef %82, ptr noundef %13)
  %84 = icmp eq i32 %83, 10
  br i1 %84, label %85, label %91

85:                                               ; preds = %79
  %86 = load ptr, ptr %5, align 8, !tbaa !3
  %87 = load ptr, ptr %5, align 8, !tbaa !3
  %88 = getelementptr inbounds nuw %struct.Abc_Frame_t_, ptr %87, i32 0, i32 40
  %89 = load ptr, ptr %88, align 8, !tbaa !17
  %90 = getelementptr inbounds nuw %struct.Gia_Man_t_, ptr %89, i32 0, i32 50
  call void @Abc_FrameReplaceCex(ptr noundef %86, ptr noundef %90)
  br label %91

91:                                               ; preds = %85, %79
  store i32 0, ptr %4, align 4
  store i32 1, ptr %15, align 4
  br label %97

92:                                               ; preds = %51, %50, %39, %27
  call void (i32, ptr, ...) @_ZL9Abc_PrintiPKcz(i32 noundef -2, ptr noundef @.str.5)
  call void (i32, ptr, ...) @_ZL9Abc_PrintiPKcz(i32 noundef -2, ptr noundef @.str.6)
  %93 = load i32, ptr %11, align 4, !tbaa !8
  call void (i32, ptr, ...) @_ZL9Abc_PrintiPKcz(i32 noundef -2, ptr noundef @.str.7, i32 noundef %93)
  %94 = load i32, ptr %9, align 4, !tbaa !8
  call void (i32, ptr, ...) @_ZL9Abc_PrintiPKcz(i32 noundef -2, ptr noundef @.str.8, i32 noundef %94)
  %95 = load i32, ptr %12, align 4, !tbaa !8
  call void (i32, ptr, ...) @_ZL9Abc_PrintiPKcz(i32 noundef -2, ptr noundef @.str.9, i32 noundef %95)
  %96 = load i32, ptr %10, align 4, !tbaa !8
  call void (i32, ptr, ...) @_ZL9Abc_PrintiPKcz(i32 noundef -2, ptr noundef @.str.10, i32 noundef %96)
  call void (i32, ptr, ...) @_ZL9Abc_PrintiPKcz(i32 noundef -2, ptr noundef @.str.11)
  call void (i32, ptr, ...) @_ZL9Abc_PrintiPKcz(i32 noundef -2, ptr noundef @.str.12)
  store i32 1, ptr %4, align 4
  store i32 1, ptr %15, align 4
  br label %97

97:                                               ; preds = %92, %91, %78, %66
  call void @llvm.lifetime.end.p0(i64 16, ptr %13) #9
  call void @llvm.lifetime.end.p0(i64 4, ptr %12) #9
  call void @llvm.lifetime.end.p0(i64 4, ptr %11) #9
  call void @llvm.lifetime.end.p0(i64 4, ptr %10) #9
  call void @llvm.lifetime.end.p0(i64 4, ptr %9) #9
  call void @llvm.lifetime.end.p0(i64 4, ptr %8) #9
  %98 = load i32, ptr %4, align 4
  ret i32 %98
}