; Function Attrs: mustprogress nounwind uwtable
define internal noundef range(i32 0, 2) i32 @_ZL18Abc_CommandGlucoseP12Abc_Frame_t_iPPc(ptr noundef %0, i32 noundef %1, ptr noundef %2) #0 {
  %4 = alloca %struct.Glucose_Pars_, align 8
  call void @llvm.lifetime.start.p0(i64 16, ptr nonnull %4) #10
  tail call void @Extra_UtilGetoptReset() #10
  br label %.outer

.outer:                                           ; preds = %18, %3
  %.028.ph = phi i32 [ %19, %18 ], [ 1, %3 ]
  %.026.ph = phi i32 [ %.026.ph81, %18 ], [ 0, %3 ]
  %.024.ph = phi i32 [ %.024.ph85, %18 ], [ 0, %3 ]
  %.023.ph = phi i32 [ %.023, %18 ], [ 0, %3 ]
  br label %.outer80

.outer80:                                         ; preds = %.outer, %22
  %.026.ph81 = phi i32 [ %.026.ph, %.outer ], [ %23, %22 ]
  %.024.ph82 = phi i32 [ %.024.ph, %.outer ], [ %.024.ph85, %22 ]
  %.023.ph83 = phi i32 [ %.023.ph, %.outer ], [ %.023, %22 ]
  br label %.outer84

.outer84:                                         ; preds = %.outer80, %10
  %.024.ph85 = phi i32 [ %.024.ph82, %.outer80 ], [ %15, %10 ]
  %.023.ph86 = phi i32 [ %.023.ph83, %.outer80 ], [ %.023, %10 ]
  br label %5

5:                                                ; preds = %.outer84, %20
  %.023 = phi i32 [ %21, %20 ], [ %.023.ph86, %.outer84 ]
  %6 = tail call i32 @Extra_UtilGetopt(i32 noundef %1, ptr noundef %2, ptr noundef nonnull @.str.2) #10
  switch i32 %6, label %.loopexit [
    i32 -1, label %24
    i32 67, label %7
    i32 112, label %18
    i32 100, label %20
    i32 118, label %22
  ]

7:                                                ; preds = %5
  %8 = load i32, ptr @globalUtilOptind, align 4, !tbaa !3
  %.not35 = icmp slt i32 %8, %1
  br i1 %.not35, label %10, label %9

9:                                                ; preds = %7
  tail call void (i32, ptr, ...) @_ZL9Abc_PrintiPKcz(i32 noundef -1, ptr noundef nonnull @.str.3)
  br label %.loopexit

10:                                               ; preds = %7
  %11 = sext i32 %8 to i64
  %12 = getelementptr inbounds ptr, ptr %2, i64 %11
  %13 = load ptr, ptr %12, align 8, !tbaa !7
  %14 = tail call i64 @strtol(ptr noundef nonnull captures(none) %13, ptr noundef null, i32 noundef 10) #10
  %15 = trunc i64 %14 to i32
  %16 = add nsw i32 %8, 1
  store i32 %16, ptr @globalUtilOptind, align 4, !tbaa !3
  %17 = icmp slt i32 %15, 0
  br i1 %17, label %.loopexit, label %.outer84, !llvm.loop !10

18:                                               ; preds = %5
  %19 = xor i32 %.028.ph, 1
  br label %.outer, !llvm.loop !10

20:                                               ; preds = %5
  %21 = xor i32 %.023, 1
  br label %5, !llvm.loop !10

22:                                               ; preds = %5
  %23 = xor i32 %.026.ph81, 1
  br label %.outer80, !llvm.loop !10

24:                                               ; preds = %5
  %.sroa.2.0.insert.ext.i = zext nneg i32 %.026.ph81 to i64
  %.sroa.2.0.insert.shift.i = shl nuw nsw i64 %.sroa.2.0.insert.ext.i, 32
  %.sroa.0.0.insert.ext.i = zext nneg i32 %.028.ph to i64
  %.sroa.0.0.insert.insert.i = or disjoint i64 %.sroa.2.0.insert.shift.i, %.sroa.0.0.insert.ext.i
  %.sroa.5.8.insert.ext.i = zext nneg i32 %.024.ph85 to i64
  %.sroa.5.8.insert.shift.i = shl nuw nsw i64 %.sroa.5.8.insert.ext.i, 32
  store i64 %.sroa.0.0.insert.insert.i, ptr %4, align 8
  %.sroa.4.0..sroa_idx = getelementptr inbounds nuw i8, ptr %4, i64 8
  store i64 %.sroa.5.8.insert.shift.i, ptr %.sroa.4.0..sroa_idx, align 8
  %25 = load i32, ptr @globalUtilOptind, align 4, !tbaa !3
  %26 = add nsw i32 %25, 1
  %27 = icmp eq i32 %1, %26
  br i1 %27, label %28, label %32

28:                                               ; preds = %24
  %29 = sext i32 %25 to i64
  %30 = getelementptr inbounds ptr, ptr %2, i64 %29
  %31 = load ptr, ptr %30, align 8, !tbaa !7
  call void @Glucose_SolveCnf(ptr noundef %31, ptr noundef nonnull %4, i32 noundef %.023) #10
  br label %43

32:                                               ; preds = %24
  %33 = getelementptr inbounds nuw i8, ptr %0, i64 288
  %34 = load ptr, ptr %33, align 8, !tbaa !12
  %35 = icmp eq ptr %34, null
  br i1 %35, label %36, label %37

36:                                               ; preds = %32
  tail call void (i32, ptr, ...) @_ZL9Abc_PrintiPKcz(i32 noundef -1, ptr noundef nonnull @.str.4)
  br label %43

37:                                               ; preds = %32
  %38 = call i32 @Glucose_SolveAig(ptr noundef nonnull %34, ptr noundef nonnull %4) #10
  %39 = icmp eq i32 %38, 10
  br i1 %39, label %40, label %43

40:                                               ; preds = %37
  %41 = load ptr, ptr %33, align 8, !tbaa !12
  %42 = getelementptr inbounds nuw i8, ptr %41, i64 368
  call void @Abc_FrameReplaceCex(ptr noundef nonnull %0, ptr noundef nonnull %42) #10
  br label %43

.loopexit:                                        ; preds = %5, %10, %9
  %.125 = phi i32 [ %.024.ph85, %9 ], [ %.024.ph85, %5 ], [ %15, %10 ]
  tail call void (i32, ptr, ...) @_ZL9Abc_PrintiPKcz(i32 noundef -2, ptr noundef nonnull @.str.5)
  tail call void (i32, ptr, ...) @_ZL9Abc_PrintiPKcz(i32 noundef -2, ptr noundef nonnull @.str.6)
  tail call void (i32, ptr, ...) @_ZL9Abc_PrintiPKcz(i32 noundef -2, ptr noundef nonnull @.str.7, i32 noundef %.125)
  tail call void (i32, ptr, ...) @_ZL9Abc_PrintiPKcz(i32 noundef -2, ptr noundef nonnull @.str.8, i32 noundef %.028.ph)
  tail call void (i32, ptr, ...) @_ZL9Abc_PrintiPKcz(i32 noundef -2, ptr noundef nonnull @.str.9, i32 noundef %.023)
  tail call void (i32, ptr, ...) @_ZL9Abc_PrintiPKcz(i32 noundef -2, ptr noundef nonnull @.str.10, i32 noundef %.026.ph81)
  tail call void (i32, ptr, ...) @_ZL9Abc_PrintiPKcz(i32 noundef -2, ptr noundef nonnull @.str.11)
  tail call void (i32, ptr, ...) @_ZL9Abc_PrintiPKcz(i32 noundef -2, ptr noundef nonnull @.str.12)
  br label %43

43:                                               ; preds = %37, %40, %.loopexit, %36, %28
  %.0 = phi i32 [ 1, %.loopexit ], [ 0, %28 ], [ 1, %36 ], [ 0, %40 ], [ 0, %37 ]
  call void @llvm.lifetime.end.p0(i64 16, ptr nonnull %4) #10
  ret i32 %.0
}